; Function Attrs: mustprogress uwtable
define void @_ZN3zmq6xsub_t12xattach_pipeEPNS_6pipe_tEbb(ptr noundef nonnull align 8 dereferenceable(2028) %this, ptr noundef %pipe_, i1 zeroext %subscribe_to_all_, i1 zeroext %locally_initiated_) unnamed_addr #0 align 2 {
entry:
  %tobool.not = icmp eq ptr %pipe_, null
  br i1 %tobool.not, label %if.then, label %do.end

if.then:                                          ; preds = %entry
  %0 = load ptr, ptr @stderr, align 8
  %call = tail call i32 (ptr, ptr, ...) @fprintf(ptr noundef %0, ptr noundef nonnull @.str.2, ptr noundef nonnull @.str.3, ptr noundef nonnull @.str.1, i32 noundef 42) #14
  %1 = load ptr, ptr @stderr, align 8
  %call3 = tail call i32 @fflush(ptr noundef %1)
  tail call void @_ZN3zmq9zmq_abortEPKc(ptr noundef nonnull @.str.3)
  br label %do.end

do.end:                                           ; preds = %entry, %if.then
  %_fq = getelementptr inbounds i8, ptr %this, i64 1832
  tail call void @_ZN3zmq4fq_t6attachEPNS_6pipe_tE(ptr noundef nonnull align 8 dereferenceable(41) %_fq, ptr noundef %pipe_)
  %_dist = getelementptr inbounds i8, ptr %this, i64 1880
  tail call void @_ZN3zmq6dist_t6attachEPNS_6pipe_tE(ptr noundef nonnull align 8 dereferenceable(49) %_dist, ptr noundef %pipe_)
  %_subscriptions = getelementptr inbounds i8, ptr %this, i64 1936
  tail call void @_ZN3zmq12radix_tree_t5applyEPFvPhmPvES2_(ptr noundef nonnull align 8 dereferenceable(16) %_subscriptions, ptr noundef nonnull @_ZN3zmq6xsub_t17send_subscriptionEPhmPv, ptr noundef %pipe_)
  tail call void @_ZN3zmq6pipe_t5flushEv(ptr noundef nonnull align 8 dereferenceable(328) %pipe_)
  ret void
}